target datalayout = "e-m:e-p270:32:32-p271:32:32-p272:64:64-i64:64-i128:128-f80:128-n8:16:32:64-S128"
target triple = "x86_64-pc-linux-gnu"

; Function Attrs: nounwind uwtable
define dso_local i64 @binsearch(i64 noundef %0, ptr noundef %1, ptr noundef %2) #0 {
  %4 = alloca i64, align 8
  %5 = alloca i64, align 8
  %6 = alloca ptr, align 8
  %7 = alloca ptr, align 8
  %8 = alloca i64, align 8
  %9 = alloca i64, align 8
  %10 = alloca i64, align 8
  %11 = alloca i32, align 4
  %12 = alloca i32, align 4
  store i64 %0, ptr %5, align 8, !tbaa !4
  store ptr %1, ptr %6, align 8, !tbaa !8
  store ptr %2, ptr %7, align 8, !tbaa !8
  call void @llvm.lifetime.start.p0(i64 8, ptr %8) #13
  store i64 0, ptr %8, align 8, !tbaa !4
  call void @llvm.lifetime.start.p0(i64 8, ptr %9) #13
  %13 = load i64, ptr %5, align 8, !tbaa !4
  store i64 %13, ptr %9, align 8, !tbaa !4
  br label %14

14:                                               ; preds = %44, %3
  %15 = load i64, ptr %9, align 8, !tbaa !4
  %16 = load i64, ptr %8, align 8, !tbaa !4
  %17 = sub i64 %15, %16
  %18 = icmp ugt i64 %17, 1
  br i1 %18, label %19, label %45

19:                                               ; preds = %14
  call void @llvm.lifetime.start.p0(i64 8, ptr %10) #13
  %20 = load i64, ptr %8, align 8, !tbaa !4
  %21 = load i64, ptr %9, align 8, !tbaa !4
  %22 = load i64, ptr %8, align 8, !tbaa !4
  %23 = sub i64 %21, %22
  %24 = udiv i64 %23, 2
  %25 = add i64 %20, %24
  store i64 %25, ptr %10, align 8, !tbaa !4
  call void @llvm.lifetime.start.p0(i64 4, ptr %11) #13
  %26 = load ptr, ptr %6, align 8, !tbaa !8
  %27 = load i64, ptr %10, align 8, !tbaa !4
  %28 = load ptr, ptr %7, align 8, !tbaa !8
  %29 = call i32 %26(i64 noundef %27, ptr noundef %28)
  store i32 %29, ptr %11, align 4, !tbaa !20
  %30 = load i32, ptr %11, align 4, !tbaa !20
  %31 = icmp slt i32 %30, 0
  br i1 %31, label %32, label %34

32:                                               ; preds = %19
  %33 = load i64, ptr %5, align 8, !tbaa !4
  store i64 %33, ptr %4, align 8
  store i32 1, ptr %12, align 4
  br label %42

34:                                               ; preds = %19
  %35 = load i32, ptr %11, align 4, !tbaa !20
  %36 = icmp sgt i32 %35, 0
  br i1 %36, label %37, label %39

37:                                               ; preds = %34
  %38 = load i64, ptr %10, align 8, !tbaa !4
  store i64 %38, ptr %9, align 8, !tbaa !4
  br label %41

39:                                               ; preds = %34
  %40 = load i64, ptr %10, align 8, !tbaa !4
  store i64 %40, ptr %8, align 8, !tbaa !4
  br label %41

41:                                               ; preds = %39, %37
  store i32 0, ptr %12, align 4
  br label %42

42:                                               ; preds = %41, %32
  call void @llvm.lifetime.end.p0(i64 4, ptr %11) #13
  call void @llvm.lifetime.end.p0(i64 8, ptr %10) #13
  %43 = load i32, ptr %12, align 4
  switch i32 %43, label %57 [
    i32 0, label %44
  ]

44:                                               ; preds = %42
  br label %14, !llvm.loop !26

45:                                               ; preds = %14
  %46 = load i64, ptr %8, align 8, !tbaa !4
  %47 = icmp ne i64 %46, 0
  br i1 %47, label %48, label %50

48:                                               ; preds = %45
  %49 = load i64, ptr %9, align 8, !tbaa !4
  store i64 %49, ptr %4, align 8
  store i32 1, ptr %12, align 4
  br label %57

50:                                               ; preds = %45
  %51 = load ptr, ptr %6, align 8, !tbaa !8
  %52 = load ptr, ptr %7, align 8, !tbaa !8
  %53 = call i32 %51(i64 noundef 0, ptr noundef %52)
  %54 = icmp ne i32 %53, 0
  %55 = select i1 %54, i32 0, i32 1
  %56 = sext i32 %55 to i64
  store i64 %56, ptr %4, align 8
  store i32 1, ptr %12, align 4
  br label %57

57:                                               ; preds = %50, %48, %42
  call void @llvm.lifetime.end.p0(i64 8, ptr %9) #13
  call void @llvm.lifetime.end.p0(i64 8, ptr %8) #13
  %58 = load i64, ptr %4, align 8
  ret i64 %58
}