; Function Attrs: nounwind uwtable
define dso_local i64 @binsearch(i64 noundef %0, ptr noundef readonly captures(none) %1, ptr noundef %2) local_unnamed_addr #0 {
  br label %4

4:                                                ; preds = %7, %3
  %.023 = phi i64 [ %0, %3 ], [ %.023., %7 ]
  %.020 = phi i64 [ 0, %3 ], [ %..020, %7 ]
  %5 = sub i64 %.023, %.020
  %6 = icmp ugt i64 %5, 1
  br i1 %6, label %7, label %12

7:                                                ; preds = %4
  %8 = lshr i64 %5, 1
  %9 = add i64 %8, %.020
  %10 = tail call i32 %1(i64 noundef %9, ptr noundef %2) #20
  %11 = icmp sgt i32 %10, -1
  %.not29 = icmp eq i32 %10, 0
  %.023. = select i1 %.not29, i64 %.023, i64 %9
  %..020 = select i1 %.not29, i64 %9, i64 %.020
  br i1 %11, label %4, label %.loopexit, !llvm.loop !16

12:                                               ; preds = %4
  %.not = icmp eq i64 %.020, 0
  br i1 %.not, label %13, label %.loopexit

13:                                               ; preds = %12
  %14 = tail call i32 %1(i64 noundef 0, ptr noundef %2) #20
  %.not28 = icmp eq i32 %14, 0
  %15 = zext i1 %.not28 to i64
  br label %.loopexit

.loopexit:                                        ; preds = %7, %12, %13
  %.2 = phi i64 [ %15, %13 ], [ %.023, %12 ], [ %0, %7 ]
  ret i64 %.2
}